Certificate:
    Data:
        Version: 3 (0x2)
        Serial Number:
            33:2e:53:e0:1e:4f:8c:f7:80:f3:24:8b:b0:1a:cb:ce
    Signature Algorithm: sha256WithRSAEncryption
        Issuer: CN=Easy-RSA CA
        Validity
            Not Before: Oct 31 02:14:05 2019 GMT
            Not After : Oct 15 02:14:05 2022 GMT
        Subject: CN=client
        Subject Public Key Info:
            Public Key Algorithm: rsaEncryption
                Public-Key: (2048 bit)
                Modulus:
                    00:d9:b2:2c:b0:d7:2e:ef:a4:4c:dc:71:c0:90:82:
                    fe:1a:2a:59:18:bc:d5:1f:17:da:18:f1:b9:5d:a6:
                    cd:eb:80:40:20:07:b6:07:43:ba:6e:d0:42:ed:ef:
                    da:ed:79:9e:15:8f:59:74:f5:23:6e:9d:b2:c1:d1:
                    43:b4:14:2d:7d:69:fe:bf:f9:7a:18:98:ba:f4:05:
                    fc:d0:6f:be:89:5a:94:3f:dc:88:fd:7d:8f:85:f6:
                    c2:14:ad:7f:13:56:ba:74:92:62:b3:83:17:69:2b:
                    5d:94:22:e4:74:40:f3:31:cb:b6:d8:ff:0d:ea:e5:
                    1c:06:93:d8:f4:7e:fb:92:b7:7b:87:06:f5:61:cd:
                    48:1e:22:5e:47:6b:7d:73:f6:db:32:52:b4:a8:a7:
                    48:40:44:fe:fa:af:24:3c:df:63:0c:1d:c9:13:10:
                    e4:19:9f:4c:d4:ab:ea:33:62:bf:85:74:31:6a:55:
                    6f:95:77:b5:55:c9:1f:5d:77:16:d9:e3:f4:38:9d:
                    5a:f0:47:e0:01:96:91:ad:fa:69:13:ba:60:6f:a9:
                    32:71:0f:ed:fd:37:cd:7c:71:b8:7f:61:fe:a4:5a:
                    13:fd:9c:9b:06:c5:b2:62:16:a8:ba:b9:ec:9a:bd:
                    dd:d8:60:c2:ea:88:8b:2e:f7:bb:c3:a1:07:4c:03:
                    37:99
                Exponent: 65537 (0x10001)
        X509v3 extensions:
            X509v3 Basic Constraints: 
                CA:FALSE
            X509v3 Subject Key Identifier: 
                97:AC:DC:F7:31:23:B0:F2:18:6B:11:8F:9F:22:68:7D:EA:69:34:08
            X509v3 Authority Key Identifier: 
                keyid:C6:5D:24:4F:41:26:A4:E4:32:5A:07:93:9B:EC:34:87:9A:7D:0D:9B
                DirName:/CN=Easy-RSA CA
                serial:89:12:AB:2B:CF:0F:E2:78

            X509v3 Extended Key Usage: 
                TLS Web Client Authentication
            X509v3 Key Usage: 
                Digital Signature
    Signature Algorithm: sha256WithRSAEncryption
         da:00:86:c7:51:c7:a1:12:d4:9f:ba:1d:99:9a:fa:15:e6:bb:
         7e:8f:6f:ce:47:19:3e:62:d9:8a:91:74:e8:51:ec:87:9c:ab:
         9f:95:3b:2f:85:7b:e8:40:0e:80:95:93:d8:e6:11:6e:fe:84:
         7a:cc:88:07:9b:ea:e0:d2:f9:42:c8:f5:2a:af:88:96:d9:06:
         b3:25:11:1f:97:6b:ac:89:5e:7e:99:39:cc:d7:dd:ca:5c:8e:
         55:51:bd:a4:81:29:73:49:45:e2:17:29:fa:79:4e:67:85:6b:
         93:af:23:00:dd:24:01:fa:f7:22:1b:d7:17:45:e2:e5:76:5c:
         e8:44:e5:03:f5:8e:ba:70:e7:a4:88:68:02:5a:e2:80:a2:7d:
         bb:45:08:e4:8b:57:91:55:7c:23:e9:58:b3:1f:9e:e6:88:97:
         cb:59:ab:76:b3:4b:80:82:4c:8e:ae:21:f1:8a:cb:cd:92:f9:
         8d:bc:14:ce:a6:45:3c:79:7b:b5:f6:e6:35:e1:df:70:2c:75:
         50:17:a7:56:a5:f2:9f:b7:93:3f:70:4e:d2:de:ae:9d:1b:5c:
         16:be:cd:d6:19:8a:5a:b6:2f:c1:37:4b:69:74:90:08:18:a4:
         26:57:bc:ff:0e:36:47:99:93:4f:9d:23:6a:e5:ec:ba:00:32:
         70:2d:7a:f1
-----BEGIN CERTIFICATE-----
MIIDSTCCAjGgAwIBAgIQMy5T4B5PjPeA8ySLsBrLzjANBgkqhkiG9w0BAQsFADAW
MRQwEgYDVQQDDAtFYXN5LVJTQSBDQTAeFw0xOTEwMzEwMjE0MDVaFw0yMjEwMTUw
MjE0MDVaMBExDzANBgNVBAMMBmNsaWVudDCCASIwDQYJKoZIhvcNAQEBBQADggEP
ADCCAQoCggEBANmyLLDXLu+kTNxxwJCC/hoqWRi81R8X2hjxuV2mzeuAQCAHtgdD
um7QQu3v2u15nhWPWXT1I26dssHRQ7QULX1p/r/5ehiYuvQF/NBvvolalD/ciP19
j4X2whStfxNWunSSYrODF2krXZQi5HRA8zHLttj/DerlHAaT2PR++5K3e4cG9WHN
SB4iXkdrfXP22zJStKinSEBE/vqvJDzfYwwdyRMQ5BmfTNSr6jNiv4V0MWpVb5V3
tVXJH113Ftnj9DidWvBH4AGWka36aRO6YG+pMnEP7f03zXxxuH9h/qRaE/2cmwbF
smIWqLq57Jq93dhgwuqIiy73u8OhB0wDN5kCAwEAAaOBlzCBlDAJBgNVHRMEAjAA
MB0GA1UdDgQWBBSXrNz3MSOw8hhrEY+fImh96mk0CDBGBgNVHSMEPzA9gBTGXSRP
QSak5DJaB5Ob7DSHmn0Nm6EapBgwFjEUMBIGA1UEAwwLRWFzeS1SU0EgQ0GCCQCJ
Eqsrzw/ieDATBgNVHSUEDDAKBggrBgEFBQcDAjALBgNVHQ8EBAMCB4AwDQYJKoZI
hvcNAQELBQADggEBANoAhsdRx6ES1J+6HZma+hXmu36Pb85HGT5i2YqRdOhR7Iec
q5+VOy+Fe+hADoCVk9jmEW7+hHrMiAeb6uDS+ULI9SqviJbZBrMlER+Xa6yJXn6Z
OczX3cpcjlVRvaSBKXNJReIXKfp5TmeFa5OvIwDdJAH69yIb1xdF4uV2XOhE5QP1
jrpw56SIaAJa4oCifbtFCOSLV5FVfCPpWLMfnuaIl8tZq3azS4CCTI6uIfGKy82S
+Y28FM6mRTx5e7X25jXh33AsdVAXp1al8p+3kz9wTtLerp0bXBa+zdYZilq2L8E3
S2l0kAgYpCZXvP8ONkeZk0+dI2rl7LoAMnAtevE=
-----END CERTIFICATE-----
